target datalayout = "e-m:e-p270:32:32-p271:32:32-p272:64:64-i64:64-i128:128-f80:128-n8:16:32:64-S128"
target triple = "x86_64-pc-linux-gnu"

%"class.llvm::SmallVectorBase" = type { ptr, i32, i32 }
%"class.std::_Function_base" = type { %"union.std::_Any_data", ptr }
%"union.std::_Any_data" = type { %"union.std::_Nocopy_types" }
%"union.std::_Nocopy_types" = type { { i64, i64 } }
%"class.std::__cxx11::basic_string" = type { %"struct.std::__cxx11::basic_string<char>::_Alloc_hider", i64, %union.anon }
%"struct.std::__cxx11::basic_string<char>::_Alloc_hider" = type { ptr }
%union.anon = type { i64, [8 x i8] }
%"class.std::vector.70" = type { %"struct.std::_Vector_base.71" }
%"struct.std::_Vector_base.71" = type { %"struct.std::_Vector_base<unsigned long, std::allocator<unsigned long>>::_Vector_impl" }
%"struct.std::_Vector_base<unsigned long, std::allocator<unsigned long>>::_Vector_impl" = type { %"struct.std::_Vector_base<unsigned long, std::allocator<unsigned long>>::_Vector_impl_data" }
%"struct.std::_Vector_base<unsigned long, std::allocator<unsigned long>>::_Vector_impl_data" = type { ptr, ptr, ptr }
%"class.llvm::DenseMap.91" = type <{ ptr, i32, i32, i32, [4 x i8] }>
%"struct.std::_Rb_tree_header" = type { %"struct.std::_Rb_tree_node_base", i64 }
%"struct.std::_Rb_tree_node_base" = type { i32, ptr, ptr, ptr }
%"struct.llvm::lto::Config" = type { %"class.std::__cxx11::basic_string", %"class.llvm::TargetOptions", %"class.std::vector", %"class.std::vector", %"class.std::vector", %"class.std::function.7", %"class.std::optional", %"class.std::optional.10", i32, i32, i32, i8, i8, i8, i8, i8, i8, i8, i8, i8, i8, i32, %"class.std::__cxx11::basic_string", %"class.std::__cxx11::basic_string", %"class.std::__cxx11::basic_string", %"class.std::__cxx11::basic_string", %"class.std::__cxx11::basic_string", %"class.std::__cxx11::basic_string", %"class.std::__cxx11::basic_string", %"class.std::__cxx11::basic_string", %"class.std::__cxx11::basic_string", %"class.std::__cxx11::basic_string", %"class.std::__cxx11::basic_string", %"class.std::__cxx11::basic_string", i8, [7 x i8], %"class.std::optional.18", %"class.std::__cxx11::basic_string", i8, %"class.std::__cxx11::basic_string", %"class.std::vector", i8, i32, i8, %"class.std::function.26", i8, %"class.std::unique_ptr", %"class.llvm::PipelineTuningOptions", %"class.std::function.31", %"class.std::function.31", %"class.std::function.31", %"class.std::function.31", %"class.std::function.31", %"class.std::function.31", %"class.std::function.33" }
%"class.llvm::TargetOptions" = type { %"struct.std::pair", i16, i32, i32, i32, i32, %"class.std::shared_ptr", i16, %"class.std::__cxx11::basic_string", i32, i32, i32, i32, i32, i32, %"struct.llvm::DenormalMode", %"struct.llvm::DenormalMode", i32, %"class.llvm::MCTargetOptions", %"class.std::__cxx11::basic_string" }
%"struct.std::pair" = type { i32, i32 }
%"class.std::shared_ptr" = type { %"class.std::__shared_ptr" }
%"class.std::__shared_ptr" = type { ptr, %"class.std::__shared_count" }
%"class.std::__shared_count" = type { ptr }
%"struct.llvm::DenormalMode" = type { i8, i8 }
%"class.llvm::MCTargetOptions" = type <{ i16, i8, i8, i8, i8, [2 x i8], i32, i32, i32, i32, %"class.std::__cxx11::basic_string", %"class.std::__cxx11::basic_string", %"class.std::__cxx11::basic_string", %"class.std::__cxx11::basic_string", ptr, %"class.llvm::ArrayRef", %"class.std::vector", i8, [7 x i8] }>
%"class.llvm::ArrayRef" = type { ptr, i64 }
%"class.std::function.7" = type { %"class.std::_Function_base", ptr }
%"class.std::optional" = type { %"struct.std::_Optional_base" }
%"struct.std::_Optional_base" = type { %"struct.std::_Optional_payload" }
%"struct.std::_Optional_payload" = type { %"struct.std::_Optional_payload_base.base", [3 x i8] }
%"struct.std::_Optional_payload_base.base" = type <{ %"union.std::_Optional_payload_base<llvm::Reloc::Model>::_Storage", i8 }>
%"union.std::_Optional_payload_base<llvm::Reloc::Model>::_Storage" = type { i32 }
%"class.std::optional.10" = type { %"struct.std::_Optional_base.11" }
%"struct.std::_Optional_base.11" = type { %"struct.std::_Optional_payload.13" }
%"struct.std::_Optional_payload.13" = type { %"struct.std::_Optional_payload_base.base.15", [3 x i8] }
%"struct.std::_Optional_payload_base.base.15" = type <{ %"union.std::_Optional_payload_base<llvm::CodeModel::Model>::_Storage", i8 }>
%"union.std::_Optional_payload_base<llvm::CodeModel::Model>::_Storage" = type { i32 }
%"class.std::optional.18" = type { %"struct.std::_Optional_base.19" }
%"struct.std::_Optional_base.19" = type { %"struct.std::_Optional_payload.21" }
%"struct.std::_Optional_payload.21" = type { %"struct.std::_Optional_payload_base.base.23", [7 x i8] }
%"struct.std::_Optional_payload_base.base.23" = type <{ %"union.std::_Optional_payload_base<unsigned long>::_Storage", i8 }>
%"union.std::_Optional_payload_base<unsigned long>::_Storage" = type { i64 }
%"class.std::vector" = type { %"struct.std::_Vector_base" }
%"struct.std::_Vector_base" = type { %"struct.std::_Vector_base<std::__cxx11::basic_string<char>, std::allocator<std::__cxx11::basic_string<char>>>::_Vector_impl" }
%"struct.std::_Vector_base<std::__cxx11::basic_string<char>, std::allocator<std::__cxx11::basic_string<char>>>::_Vector_impl" = type { %"struct.std::_Vector_base<std::__cxx11::basic_string<char>, std::allocator<std::__cxx11::basic_string<char>>>::_Vector_impl_data" }
%"struct.std::_Vector_base<std::__cxx11::basic_string<char>, std::allocator<std::__cxx11::basic_string<char>>>::_Vector_impl_data" = type { ptr, ptr, ptr }
%"class.std::function.26" = type { %"class.std::_Function_base", ptr }
%"class.std::unique_ptr" = type { %"struct.std::__uniq_ptr_data" }
%"struct.std::__uniq_ptr_data" = type { %"class.std::__uniq_ptr_impl" }
%"class.std::__uniq_ptr_impl" = type { %"class.std::tuple" }
%"class.std::tuple" = type { %"struct.std::_Tuple_impl" }
%"struct.std::_Tuple_impl" = type { %"struct.std::_Head_base.30" }
%"struct.std::_Head_base.30" = type { ptr }
%"class.llvm::PipelineTuningOptions" = type <{ i8, i8, i8, i8, i8, [3 x i8], i32, i32, i8, i8, i8, i8, i32, i8, [3 x i8] }>
%"class.std::function.31" = type { %"class.std::_Function_base", ptr }
%"class.std::function.33" = type { %"class.std::_Function_base", ptr }
%"class.llvm::ModuleSummaryIndex" = type { %"class.std::map", %"class.llvm::StringMap", %"class.std::multimap", %"class.std::map.43", %"class.std::map.49", i8, i8, i8, i8, i8, i8, i8, i8, i8, i8, i8, i8, %"class.std::set", %"class.std::set", %"class.llvm::BumpPtrAllocatorImpl", %"class.llvm::StringSaver", i64, %"class.std::vector.70", %"class.llvm::DenseMap" }
%"class.std::map" = type { %"class.std::_Rb_tree" }
%"class.std::_Rb_tree" = type { %"struct.std::_Rb_tree<unsigned long, std::pair<const unsigned long, llvm::GlobalValueSummaryInfo>, std::_Select1st<std::pair<const unsigned long, llvm::GlobalValueSummaryInfo>>, std::less<unsigned long>>::_Rb_tree_impl" }
%"struct.std::_Rb_tree<unsigned long, std::pair<const unsigned long, llvm::GlobalValueSummaryInfo>, std::_Select1st<std::pair<const unsigned long, llvm::GlobalValueSummaryInfo>>, std::less<unsigned long>>::_Rb_tree_impl" = type { [8 x i8], %"struct.std::_Rb_tree_header" }
%"class.llvm::StringMap" = type { %"class.llvm::StringMapImpl" }
%"class.llvm::StringMapImpl" = type { ptr, i32, i32, i32, i32 }
%"class.std::multimap" = type { %"class.std::_Rb_tree.39" }
%"class.std::_Rb_tree.39" = type { %"struct.std::_Rb_tree<unsigned long, std::pair<const unsigned long, std::pair<std::__cxx11::basic_string<char>, llvm::TypeIdSummary>>, std::_Select1st<std::pair<const unsigned long, std::pair<std::__cxx11::basic_string<char>, llvm::TypeIdSummary>>>, std::less<unsigned long>>::_Rb_tree_impl" }
%"struct.std::_Rb_tree<unsigned long, std::pair<const unsigned long, std::pair<std::__cxx11::basic_string<char>, llvm::TypeIdSummary>>, std::_Select1st<std::pair<const unsigned long, std::pair<std::__cxx11::basic_string<char>, llvm::TypeIdSummary>>>, std::less<unsigned long>>::_Rb_tree_impl" = type { [8 x i8], %"struct.std::_Rb_tree_header" }
%"class.std::map.43" = type { %"class.std::_Rb_tree.44" }
%"class.std::_Rb_tree.44" = type { %"struct.std::_Rb_tree<std::__cxx11::basic_string<char>, std::pair<const std::__cxx11::basic_string<char>, std::vector<llvm::TypeIdOffsetVtableInfo>>, std::_Select1st<std::pair<const std::__cxx11::basic_string<char>, std::vector<llvm::TypeIdOffsetVtableInfo>>>, std::less<void>>::_Rb_tree_impl" }
%"struct.std::_Rb_tree<std::__cxx11::basic_string<char>, std::pair<const std::__cxx11::basic_string<char>, std::vector<llvm::TypeIdOffsetVtableInfo>>, std::_Select1st<std::pair<const std::__cxx11::basic_string<char>, std::vector<llvm::TypeIdOffsetVtableInfo>>>, std::less<void>>::_Rb_tree_impl" = type { [8 x i8], %"struct.std::_Rb_tree_header" }
%"class.std::map.49" = type { %"class.std::_Rb_tree.50" }
%"class.std::_Rb_tree.50" = type { %"struct.std::_Rb_tree<unsigned long, std::pair<const unsigned long, unsigned long>, std::_Select1st<std::pair<const unsigned long, unsigned long>>, std::less<unsigned long>>::_Rb_tree_impl" }
%"struct.std::_Rb_tree<unsigned long, std::pair<const unsigned long, unsigned long>, std::_Select1st<std::pair<const unsigned long, unsigned long>>, std::less<unsigned long>>::_Rb_tree_impl" = type { [8 x i8], %"struct.std::_Rb_tree_header" }
%"class.std::set" = type { %"class.std::_Rb_tree.54" }
%"class.std::_Rb_tree.54" = type { %"struct.std::_Rb_tree<std::__cxx11::basic_string<char>, std::__cxx11::basic_string<char>, std::_Identity<std::__cxx11::basic_string<char>>, std::less<std::__cxx11::basic_string<char>>>::_Rb_tree_impl" }
%"struct.std::_Rb_tree<std::__cxx11::basic_string<char>, std::__cxx11::basic_string<char>, std::_Identity<std::__cxx11::basic_string<char>>, std::less<std::__cxx11::basic_string<char>>>::_Rb_tree_impl" = type { [8 x i8], %"struct.std::_Rb_tree_header" }
%"class.llvm::BumpPtrAllocatorImpl" = type { ptr, ptr, %"class.llvm::SmallVector.60", %"class.llvm::SmallVector.65", i64, i64 }
%"class.llvm::SmallVector.60" = type { %"class.llvm::SmallVectorImpl.61", %"struct.llvm::SmallVectorStorage.64" }
%"class.llvm::SmallVectorImpl.61" = type { %"class.llvm::SmallVectorTemplateBase.62" }
%"class.llvm::SmallVectorTemplateBase.62" = type { %"class.llvm::SmallVectorTemplateCommon.63" }
%"class.llvm::SmallVectorTemplateCommon.63" = type { %"class.llvm::SmallVectorBase" }
%"struct.llvm::SmallVectorStorage.64" = type { [32 x i8] }
%"class.llvm::SmallVector.65" = type { %"class.llvm::SmallVectorImpl.66" }
%"class.llvm::SmallVectorImpl.66" = type { %"class.llvm::SmallVectorTemplateBase.67" }
%"class.llvm::SmallVectorTemplateBase.67" = type { %"class.llvm::SmallVectorTemplateCommon.68" }
%"class.llvm::SmallVectorTemplateCommon.68" = type { %"class.llvm::SmallVectorBase" }
%"class.llvm::StringSaver" = type { ptr }
%"class.llvm::DenseMap" = type <{ ptr, i32, i32, i32, [4 x i8] }>
%"struct.llvm::lto::LTO::RegularLTOState" = type <{ %"class.std::map.261", i32, [4 x i8], %"struct.llvm::lto::LTOLLVMContext", %"class.std::unique_ptr.266", %"class.std::unique_ptr.274", %"class.std::vector.282", i8, [7 x i8] }>
%"class.std::map.261" = type { %"class.std::_Rb_tree.262" }
%"class.std::_Rb_tree.262" = type { %"struct.std::_Rb_tree<std::__cxx11::basic_string<char>, std::pair<const std::__cxx11::basic_string<char>, llvm::lto::LTO::RegularLTOState::CommonResolution>, std::_Select1st<std::pair<const std::__cxx11::basic_string<char>, llvm::lto::LTO::RegularLTOState::CommonResolution>>, std::less<std::__cxx11::basic_string<char>>>::_Rb_tree_impl" }
%"struct.std::_Rb_tree<std::__cxx11::basic_string<char>, std::pair<const std::__cxx11::basic_string<char>, llvm::lto::LTO::RegularLTOState::CommonResolution>, std::_Select1st<std::pair<const std::__cxx11::basic_string<char>, llvm::lto::LTO::RegularLTOState::CommonResolution>>, std::less<std::__cxx11::basic_string<char>>>::_Rb_tree_impl" = type { [8 x i8], %"struct.std::_Rb_tree_header" }
%"struct.llvm::lto::LTOLLVMContext" = type { %"class.llvm::LLVMContext", %"class.std::function.26" }
%"class.llvm::LLVMContext" = type { ptr }
%"class.std::unique_ptr.266" = type { %"struct.std::__uniq_ptr_data.267" }
%"struct.std::__uniq_ptr_data.267" = type { %"class.std::__uniq_ptr_impl.268" }
%"class.std::__uniq_ptr_impl.268" = type { %"class.std::tuple.269" }
%"class.std::tuple.269" = type { %"struct.std::_Tuple_impl.270" }
%"struct.std::_Tuple_impl.270" = type { %"struct.std::_Head_base.273" }
%"struct.std::_Head_base.273" = type { ptr }
%"class.std::unique_ptr.274" = type { %"struct.std::__uniq_ptr_data.275" }
%"struct.std::__uniq_ptr_data.275" = type { %"class.std::__uniq_ptr_impl.276" }
%"class.std::__uniq_ptr_impl.276" = type { %"class.std::tuple.277" }
%"class.std::tuple.277" = type { %"struct.std::_Tuple_impl.278" }
%"struct.std::_Tuple_impl.278" = type { %"struct.std::_Head_base.281" }
%"struct.std::_Head_base.281" = type { ptr }
%"class.std::vector.282" = type { %"struct.std::_Vector_base.283" }
%"struct.std::_Vector_base.283" = type { %"struct.std::_Vector_base<llvm::lto::LTO::RegularLTOState::AddedModule, std::allocator<llvm::lto::LTO::RegularLTOState::AddedModule>>::_Vector_impl" }
%"struct.std::_Vector_base<llvm::lto::LTO::RegularLTOState::AddedModule, std::allocator<llvm::lto::LTO::RegularLTOState::AddedModule>>::_Vector_impl" = type { %"struct.std::_Vector_base<llvm::lto::LTO::RegularLTOState::AddedModule, std::allocator<llvm::lto::LTO::RegularLTOState::AddedModule>>::_Vector_impl_data" }
%"struct.std::_Vector_base<llvm::lto::LTO::RegularLTOState::AddedModule, std::allocator<llvm::lto::LTO::RegularLTOState::AddedModule>>::_Vector_impl_data" = type { ptr, ptr, ptr }
%"class.std::function.364" = type { %"class.std::_Function_base", ptr }
%"struct.llvm::lto::LTO::ThinLTOState" = type { %"class.std::function.364", %"class.llvm::ModuleSummaryIndex", %"class.llvm::MapVector", %"class.std::optional.371", %"class.llvm::DenseMap.381" }
%"class.llvm::MapVector" = type { %"class.llvm::DenseMap.91", %"class.llvm::SmallVector.366" }
%"class.llvm::SmallVector.366" = type { %"class.llvm::SmallVectorImpl.367" }
%"class.llvm::SmallVectorImpl.367" = type { %"class.llvm::SmallVectorTemplateBase.368" }
%"class.llvm::SmallVectorTemplateBase.368" = type { %"class.llvm::SmallVectorTemplateCommon.369" }
%"class.llvm::SmallVectorTemplateCommon.369" = type { %"class.llvm::SmallVectorBase" }
%"class.std::optional.371" = type { %"struct.std::_Optional_base.372" }
%"struct.std::_Optional_base.372" = type { %"struct.std::_Optional_payload.374" }
%"struct.std::_Optional_payload.374" = type { %"struct.std::_Optional_payload.base.378", [7 x i8] }
%"struct.std::_Optional_payload.base.378" = type { %"struct.std::_Optional_payload_base.base.377" }
%"struct.std::_Optional_payload_base.base.377" = type <{ %"union.std::_Optional_payload_base<llvm::MapVector<llvm::StringRef, llvm::BitcodeModule>>::_Storage", i8 }>
%"union.std::_Optional_payload_base<llvm::MapVector<llvm::StringRef, llvm::BitcodeModule>>::_Storage" = type { %"class.llvm::MapVector" }
%"class.llvm::DenseMap.381" = type <{ ptr, i32, i32, i32, [4 x i8] }>
%"class.llvm::lto::LTO" = type { %"struct.llvm::lto::Config", %"struct.llvm::lto::LTO::RegularLTOState", %"struct.llvm::lto::LTO::ThinLTOState", %"class.std::optional.387", i8, i32, %"class.std::optional.398", [6 x i8], %"class.llvm::DenseSet.130", %"class.std::unique_ptr.404" }
%"class.std::optional.387" = type { %"struct.std::_Optional_base.388" }
%"struct.std::_Optional_base.388" = type { %"struct.std::_Optional_payload.390" }
%"struct.std::_Optional_payload.390" = type { %"struct.std::_Optional_payload.base.395", [7 x i8] }
%"struct.std::_Optional_payload.base.395" = type { %"struct.std::_Optional_payload_base.base.394" }
%"struct.std::_Optional_payload_base.base.394" = type <{ %"union.std::_Optional_payload_base<llvm::StringMap<llvm::lto::LTO::GlobalResolution>>::_Storage", i8 }>
%"union.std::_Optional_payload_base<llvm::StringMap<llvm::lto::LTO::GlobalResolution>>::_Storage" = type { %"class.llvm::StringMap.393" }
%"class.llvm::StringMap.393" = type { %"class.llvm::StringMapImpl" }
%"class.std::optional.398" = type { %"struct.std::_Optional_base.399" }
%"struct.std::_Optional_base.399" = type { %"struct.std::_Optional_payload.401" }
%"struct.std::_Optional_payload.401" = type { %"struct.std::_Optional_payload_base.402" }
%"struct.std::_Optional_payload_base.402" = type { %"union.std::_Optional_payload_base<bool>::_Storage", i8 }
%"union.std::_Optional_payload_base<bool>::_Storage" = type { %"struct.std::_Optional_payload_base<bool>::_Empty_byte" }
%"struct.std::_Optional_payload_base<bool>::_Empty_byte" = type { i8 }
%"class.llvm::DenseSet.130" = type { %"class.llvm::detail::DenseSetImpl.131" }
%"class.llvm::detail::DenseSetImpl.131" = type { %"class.llvm::DenseMap.132" }
%"class.llvm::DenseMap.132" = type <{ ptr, i32, i32, i32, [4 x i8] }>
%"class.std::unique_ptr.404" = type { %"struct.std::__uniq_ptr_data.405" }
%"struct.std::__uniq_ptr_data.405" = type { %"class.std::__uniq_ptr_impl.406" }
%"class.std::__uniq_ptr_impl.406" = type { %"class.std::tuple.407" }
%"class.std::tuple.407" = type { %"struct.std::_Tuple_impl.408" }
%"struct.std::_Tuple_impl.408" = type { %"struct.std::_Head_base.411" }
%"struct.std::_Head_base.411" = type { ptr }
%"struct.std::_Optional_payload_base.376" = type <{ %"union.std::_Optional_payload_base<llvm::MapVector<llvm::StringRef, llvm::BitcodeModule>>::_Storage", i8, [7 x i8] }>

; Function Attrs: mustprogress nounwind uwtable
define linkonce_odr hidden noundef nonnull align 8 dereferenceable(40) ptr @_ZNKSt22_Optional_payload_baseIN4llvm9MapVectorINS0_9StringRefENS0_13BitcodeModuleENS0_8DenseMapIS2_jNS0_12DenseMapInfoIS2_vEENS0_6detail12DenseMapPairIS2_jEEEENS0_11SmallVectorISt4pairIS2_S3_ELj0EEEEEE6_M_getEv(ptr noundef nonnull align 8 dereferenceable(41) %0) #1 comdat align 2 {
  %2 = alloca ptr, align 8
  store ptr %0, ptr %2, align 8
  %3 = load ptr, ptr %2, align 8
  %4 = getelementptr inbounds nuw %"struct.std::_Optional_payload_base.376", ptr %3, i32 0, i32 0
  ret ptr %4
}

; Function Attrs: mustprogress nounwind uwtable
define linkonce_odr hidden noundef nonnull align 8 dereferenceable(40) ptr @_ZNKSt19_Optional_base_implIN4llvm9MapVectorINS0_9StringRefENS0_13BitcodeModuleENS0_8DenseMapIS2_jNS0_12DenseMapInfoIS2_vEENS0_6detail12DenseMapPairIS2_jEEEENS0_11SmallVectorISt4pairIS2_S3_ELj0EEEEESt14_Optional_baseISF_Lb0ELb0EEE6_M_getEv(ptr noundef nonnull align 1 dereferenceable(1) %0) #1 comdat align 2 {
  %2 = alloca ptr, align 8
  store ptr %0, ptr %2, align 8
  %3 = load ptr, ptr %2, align 8
  br label %4

4:                                                ; preds = %1
  br label %5

5:                                                ; preds = %4
  %6 = getelementptr inbounds nuw %"struct.std::_Optional_base.372", ptr %3, i32 0, i32 0
  %7 = call noundef nonnull align 8 dereferenceable(40) ptr @_ZNKSt22_Optional_payload_baseIN4llvm9MapVectorINS0_9StringRefENS0_13BitcodeModuleENS0_8DenseMapIS2_jNS0_12DenseMapInfoIS2_vEENS0_6detail12DenseMapPairIS2_jEEEENS0_11SmallVectorISt4pairIS2_S3_ELj0EEEEEE6_M_getEv(ptr noundef nonnull align 8 dereferenceable(41) %6) #2
  ret ptr %7
}

; Function Attrs: mustprogress nounwind uwtable
define linkonce_odr hidden noundef zeroext i1 @_ZNKSt19_Optional_base_implIN4llvm9MapVectorINS0_9StringRefENS0_13BitcodeModuleENS0_8DenseMapIS2_jNS0_12DenseMapInfoIS2_vEENS0_6detail12DenseMapPairIS2_jEEEENS0_11SmallVectorISt4pairIS2_S3_ELj0EEEEESt14_Optional_baseISF_Lb0ELb0EEE13_M_is_engagedEv(ptr noundef nonnull align 1 dereferenceable(1) %0) #1 comdat align 2 {
  %2 = alloca ptr, align 8
  store ptr %0, ptr %2, align 8
  %3 = load ptr, ptr %2, align 8
  %4 = getelementptr inbounds nuw %"struct.std::_Optional_base.372", ptr %3, i32 0, i32 0
  %5 = getelementptr inbounds nuw %"struct.std::_Optional_payload_base.376", ptr %4, i32 0, i32 1
  %6 = load i8, ptr %5, align 8
  %7 = trunc i8 %6 to i1
  ret i1 %7
}

; Function Attrs: mustprogress nounwind uwtable
define linkonce_odr hidden noundef i64 @_ZNK4llvm9MapVectorINS_9StringRefENS_13BitcodeModuleENS_8DenseMapIS1_jNS_12DenseMapInfoIS1_vEENS_6detail12DenseMapPairIS1_jEEEENS_11SmallVectorISt4pairIS1_S2_ELj0EEEE4sizeEv(ptr noundef nonnull align 8 dereferenceable(40) %0) #1 comdat align 2 {
  %2 = alloca ptr, align 8
  store ptr %0, ptr %2, align 8
  %3 = load ptr, ptr %2, align 8
  %4 = getelementptr inbounds nuw %"class.llvm::MapVector", ptr %3, i32 0, i32 1
  %5 = call noundef i64 @_ZNK4llvm15SmallVectorBaseIjE4sizeEv(ptr noundef nonnull align 8 dereferenceable(16) %4)
  ret i64 %5
}

; Function Attrs: mustprogress nounwind uwtable
define linkonce_odr hidden noundef ptr @_ZNKSt8optionalIN4llvm9MapVectorINS0_9StringRefENS0_13BitcodeModuleENS0_8DenseMapIS2_jNS0_12DenseMapInfoIS2_vEENS0_6detail12DenseMapPairIS2_jEEEENS0_11SmallVectorISt4pairIS2_S3_ELj0EEEEEEptEv(ptr noundef nonnull align 8 dereferenceable(48) %0) #1 comdat align 2 {
  %2 = alloca ptr, align 8
  store ptr %0, ptr %2, align 8
  %3 = load ptr, ptr %2, align 8
  %4 = call noundef nonnull align 8 dereferenceable(40) ptr @_ZNKSt19_Optional_base_implIN4llvm9MapVectorINS0_9StringRefENS0_13BitcodeModuleENS0_8DenseMapIS2_jNS0_12DenseMapInfoIS2_vEENS0_6detail12DenseMapPairIS2_jEEEENS0_11SmallVectorISt4pairIS2_S3_ELj0EEEEESt14_Optional_baseISF_Lb0ELb0EEE6_M_getEv(ptr noundef nonnull align 1 dereferenceable(1) %3) #2
  ret ptr %4
}

; Function Attrs: mustprogress nounwind uwtable
define linkonce_odr hidden noundef zeroext i1 @_ZNKSt8optionalIN4llvm9MapVectorINS0_9StringRefENS0_13BitcodeModuleENS0_8DenseMapIS2_jNS0_12DenseMapInfoIS2_vEENS0_6detail12DenseMapPairIS2_jEEEENS0_11SmallVectorISt4pairIS2_S3_ELj0EEEEEEcvbEv(ptr noundef nonnull align 8 dereferenceable(48) %0) #1 comdat align 2 {
  %2 = alloca ptr, align 8
  store ptr %0, ptr %2, align 8
  %3 = load ptr, ptr %2, align 8
  %4 = call noundef zeroext i1 @_ZNKSt19_Optional_base_implIN4llvm9MapVectorINS0_9StringRefENS0_13BitcodeModuleENS0_8DenseMapIS2_jNS0_12DenseMapInfoIS2_vEENS0_6detail12DenseMapPairIS2_jEEEENS0_11SmallVectorISt4pairIS2_S3_ELj0EEEEESt14_Optional_baseISF_Lb0ELb0EEE13_M_is_engagedEv(ptr noundef nonnull align 1 dereferenceable(1) %3) #2
  ret i1 %4
}

; Function Attrs: mustprogress nounwind uwtable
define dso_local noundef i32 @_ZNK4llvm3lto3LTO11getMaxTasksEv(ptr noundef nonnull align 8 dereferenceable(2224) %0) #1 align 2 {
  %2 = alloca ptr, align 8
  %3 = alloca i64, align 8
  store ptr %0, ptr %2, align 8
  %4 = load ptr, ptr %2, align 8
  %5 = getelementptr inbounds nuw %"class.llvm::lto::LTO", ptr %4, i32 0, i32 4
  store i8 1, ptr %5, align 8
  %6 = getelementptr inbounds nuw %"class.llvm::lto::LTO", ptr %4, i32 0, i32 2
  %7 = getelementptr inbounds nuw %"struct.llvm::lto::LTO::ThinLTOState", ptr %6, i32 0, i32 3
  %8 = call noundef zeroext i1 @_ZNKSt8optionalIN4llvm9MapVectorINS0_9StringRefENS0_13BitcodeModuleENS0_8DenseMapIS2_jNS0_12DenseMapInfoIS2_vEENS0_6detail12DenseMapPairIS2_jEEEENS0_11SmallVectorISt4pairIS2_S3_ELj0EEEEEEcvbEv(ptr noundef nonnull align 8 dereferenceable(48) %7) #2
  br i1 %8, label %9, label %14

9:                                                ; preds = %1
  %10 = getelementptr inbounds nuw %"class.llvm::lto::LTO", ptr %4, i32 0, i32 2
  %11 = getelementptr inbounds nuw %"struct.llvm::lto::LTO::ThinLTOState", ptr %10, i32 0, i32 3
  %12 = call noundef ptr @_ZNKSt8optionalIN4llvm9MapVectorINS0_9StringRefENS0_13BitcodeModuleENS0_8DenseMapIS2_jNS0_12DenseMapInfoIS2_vEENS0_6detail12DenseMapPairIS2_jEEEENS0_11SmallVectorISt4pairIS2_S3_ELj0EEEEEEptEv(ptr noundef nonnull align 8 dereferenceable(48) %11) #2
  %13 = call noundef i64 @_ZNK4llvm9MapVectorINS_9StringRefENS_13BitcodeModuleENS_8DenseMapIS1_jNS_12DenseMapInfoIS1_vEENS_6detail12DenseMapPairIS1_jEEEENS_11SmallVectorISt4pairIS1_S2_ELj0EEEE4sizeEv(ptr noundef nonnull align 8 dereferenceable(40) %12)
  br label %18

14:                                               ; preds = %1
  %15 = getelementptr inbounds nuw %"class.llvm::lto::LTO", ptr %4, i32 0, i32 2
  %16 = getelementptr inbounds nuw %"struct.llvm::lto::LTO::ThinLTOState", ptr %15, i32 0, i32 2
  %17 = call noundef i64 @_ZNK4llvm9MapVectorINS_9StringRefENS_13BitcodeModuleENS_8DenseMapIS1_jNS_12DenseMapInfoIS1_vEENS_6detail12DenseMapPairIS1_jEEEENS_11SmallVectorISt4pairIS1_S2_ELj0EEEE4sizeEv(ptr noundef nonnull align 8 dereferenceable(40) %16)
  br label %18

18:                                               ; preds = %14, %9
  %19 = phi i64 [ %13, %9 ], [ %17, %14 ]
  store i64 %19, ptr %3, align 8
  %20 = getelementptr inbounds nuw %"class.llvm::lto::LTO", ptr %4, i32 0, i32 1
  %21 = getelementptr inbounds nuw %"struct.llvm::lto::LTO::RegularLTOState", ptr %20, i32 0, i32 1
  %22 = load i32, ptr %21, align 8
  %23 = zext i32 %22 to i64
  %24 = load i64, ptr %3, align 8
  %25 = add i64 %23, %24
  %26 = trunc i64 %25 to i32
  ret i32 %26
}