; Function Attrs: mustprogress nounwind uwtable
define dso_local noundef i32 @_ZNK4llvm3lto3LTO11getMaxTasksEv(ptr noundef nonnull align 8 dereferenceable(2224) initializes((2176, 2177)) %0) local_unnamed_addr #0 align 2 {
  %2 = getelementptr inbounds nuw i8, ptr %0, i64 2176
  store i8 1, ptr %2, align 8
  %3 = getelementptr inbounds nuw i8, ptr %0, i64 2112
  %4 = load i8, ptr %3, align 8
  %5 = trunc i8 %4 to i1
  %. = select i1 %5, i64 2096, i64 2056
  %6 = getelementptr inbounds nuw i8, ptr %0, i64 %.
  %7 = tail call noundef i64 @_ZNK4llvm15SmallVectorBaseIjE4sizeEv(ptr noundef nonnull align 8 dereferenceable(16) %6) #28
  %8 = getelementptr inbounds nuw i8, ptr %0, i64 1416
  %9 = load i32, ptr %8, align 8
  %10 = trunc i64 %7 to i32
  %11 = add i32 %9, %10
  ret i32 %11
}